target datalayout = "e-m:e-p270:32:32-p271:32:32-p272:64:64-i64:64-i128:128-f80:128-n8:16:32:64-S128"
target triple = "x86_64-unknown-linux-gnu"

%struct.nlmsghdr = type { i32, i16, i16, i32, i32 }
%struct.nlmsgerr = type { i32, %struct.nlmsghdr }

; Function Attrs: nounwind sspstrong uwtable
define internal zeroext i16 @tswap16(i16 noundef zeroext %s) #0 {
entry:
  %s.addr = alloca i16, align 2
  store i16 %s, ptr %s.addr, align 2
  %0 = load i16, ptr %s.addr, align 2
  ret i16 %0
}

; Function Attrs: nounwind sspstrong uwtable
define internal i32 @tswap32(i32 noundef %s) #0 {
entry:
  %s.addr = alloca i32, align 4
  store i32 %s, ptr %s.addr, align 4
  %0 = load i32, ptr %s.addr, align 4
  ret i32 %0
}

; Function Attrs: nounwind sspstrong uwtable
define internal void @tswap_nlmsghdr(ptr noundef %nlh) #0 {
entry:
  %nlh.addr = alloca ptr, align 8
  store ptr %nlh, ptr %nlh.addr, align 8
  %0 = load ptr, ptr %nlh.addr, align 8
  %nlmsg_len = getelementptr inbounds %struct.nlmsghdr, ptr %0, i32 0, i32 0
  %1 = load i32, ptr %nlmsg_len, align 4
  %call = call i32 @tswap32(i32 noundef %1)
  %2 = load ptr, ptr %nlh.addr, align 8
  %nlmsg_len1 = getelementptr inbounds %struct.nlmsghdr, ptr %2, i32 0, i32 0
  store i32 %call, ptr %nlmsg_len1, align 4
  %3 = load ptr, ptr %nlh.addr, align 8
  %nlmsg_type = getelementptr inbounds %struct.nlmsghdr, ptr %3, i32 0, i32 1
  %4 = load i16, ptr %nlmsg_type, align 4
  %call2 = call zeroext i16 @tswap16(i16 noundef zeroext %4)
  %5 = load ptr, ptr %nlh.addr, align 8
  %nlmsg_type3 = getelementptr inbounds %struct.nlmsghdr, ptr %5, i32 0, i32 1
  store i16 %call2, ptr %nlmsg_type3, align 4
  %6 = load ptr, ptr %nlh.addr, align 8
  %nlmsg_flags = getelementptr inbounds %struct.nlmsghdr, ptr %6, i32 0, i32 2
  %7 = load i16, ptr %nlmsg_flags, align 2
  %call4 = call zeroext i16 @tswap16(i16 noundef zeroext %7)
  %8 = load ptr, ptr %nlh.addr, align 8
  %nlmsg_flags5 = getelementptr inbounds %struct.nlmsghdr, ptr %8, i32 0, i32 2
  store i16 %call4, ptr %nlmsg_flags5, align 2
  %9 = load ptr, ptr %nlh.addr, align 8
  %nlmsg_seq = getelementptr inbounds %struct.nlmsghdr, ptr %9, i32 0, i32 3
  %10 = load i32, ptr %nlmsg_seq, align 4
  %call6 = call i32 @tswap32(i32 noundef %10)
  %11 = load ptr, ptr %nlh.addr, align 8
  %nlmsg_seq7 = getelementptr inbounds %struct.nlmsghdr, ptr %11, i32 0, i32 3
  store i32 %call6, ptr %nlmsg_seq7, align 4
  %12 = load ptr, ptr %nlh.addr, align 8
  %nlmsg_pid = getelementptr inbounds %struct.nlmsghdr, ptr %12, i32 0, i32 4
  %13 = load i32, ptr %nlmsg_pid, align 4
  %call8 = call i32 @tswap32(i32 noundef %13)
  %14 = load ptr, ptr %nlh.addr, align 8
  %nlmsg_pid9 = getelementptr inbounds %struct.nlmsghdr, ptr %14, i32 0, i32 4
  store i32 %call8, ptr %nlmsg_pid9, align 4
  ret void
}

; Function Attrs: nounwind sspstrong uwtable
define internal i64 @host_to_target_for_each_nlmsg(ptr noundef %nlh, i64 noundef %len, ptr noundef %host_to_target_nlmsg) #0 {
entry:
  %retval = alloca i64, align 8
  %nlh.addr = alloca ptr, align 8
  %len.addr = alloca i64, align 8
  %host_to_target_nlmsg.addr = alloca ptr, align 8
  %nlmsg_len = alloca i32, align 4
  %aligned_nlmsg_len = alloca i32, align 4
  %ret = alloca i64, align 8
  %e = alloca ptr, align 8
  store ptr %nlh, ptr %nlh.addr, align 8
  store i64 %len, ptr %len.addr, align 8
  store ptr %host_to_target_nlmsg, ptr %host_to_target_nlmsg.addr, align 8
  br label %while.cond

while.cond:                                       ; preds = %if.end20, %entry
  %0 = load i64, ptr %len.addr, align 8
  %cmp = icmp ugt i64 %0, 16
  br i1 %cmp, label %while.body, label %while.end

while.body:                                       ; preds = %while.cond
  %1 = load ptr, ptr %nlh.addr, align 8
  %nlmsg_len1 = getelementptr inbounds %struct.nlmsghdr, ptr %1, i32 0, i32 0
  %2 = load i32, ptr %nlmsg_len1, align 4
  store i32 %2, ptr %nlmsg_len, align 4
  %3 = load i32, ptr %nlmsg_len, align 4
  %conv = zext i32 %3 to i64
  %cmp2 = icmp ult i64 %conv, 16
  br i1 %cmp2, label %if.then, label %lor.lhs.false

lor.lhs.false:                                    ; preds = %while.body
  %4 = load i32, ptr %nlmsg_len, align 4
  %conv4 = zext i32 %4 to i64
  %5 = load i64, ptr %len.addr, align 8
  %cmp5 = icmp ugt i64 %conv4, %5
  br i1 %cmp5, label %if.then, label %if.end

if.then:                                          ; preds = %lor.lhs.false, %while.body
  br label %while.end

if.end:                                           ; preds = %lor.lhs.false
  %6 = load ptr, ptr %nlh.addr, align 8
  %nlmsg_type = getelementptr inbounds %struct.nlmsghdr, ptr %6, i32 0, i32 1
  %7 = load i16, ptr %nlmsg_type, align 4
  %conv7 = zext i16 %7 to i32
  switch i32 %conv7, label %sw.default [
    i32 3, label %sw.bb
    i32 1, label %sw.bb8
    i32 2, label %sw.bb9
  ]

sw.bb:                                            ; preds = %if.end
  %8 = load ptr, ptr %nlh.addr, align 8
  call void @tswap_nlmsghdr(ptr noundef %8)
  store i64 0, ptr %retval, align 8
  br label %return

sw.bb8:                                           ; preds = %if.end
  br label %sw.epilog

sw.bb9:                                           ; preds = %if.end
  %9 = load ptr, ptr %nlh.addr, align 8
  %add.ptr = getelementptr i8, ptr %9, i64 16
  store ptr %add.ptr, ptr %e, align 8
  %10 = load ptr, ptr %e, align 8
  %error = getelementptr inbounds %struct.nlmsgerr, ptr %10, i32 0, i32 0
  %11 = load i32, ptr %error, align 4
  %call = call i32 @tswap32(i32 noundef %11)
  %12 = load ptr, ptr %e, align 8
  %error10 = getelementptr inbounds %struct.nlmsgerr, ptr %12, i32 0, i32 0
  store i32 %call, ptr %error10, align 4
  %13 = load ptr, ptr %e, align 8
  %msg = getelementptr inbounds %struct.nlmsgerr, ptr %13, i32 0, i32 1
  call void @tswap_nlmsghdr(ptr noundef %msg)
  %14 = load ptr, ptr %nlh.addr, align 8
  call void @tswap_nlmsghdr(ptr noundef %14)
  store i64 0, ptr %retval, align 8
  br label %return

sw.default:                                       ; preds = %if.end
  %15 = load ptr, ptr %host_to_target_nlmsg.addr, align 8
  %16 = load ptr, ptr %nlh.addr, align 8
  %call11 = call i64 %15(ptr noundef %16)
  store i64 %call11, ptr %ret, align 8
  %17 = load i64, ptr %ret, align 8
  %cmp12 = icmp slt i64 %17, 0
  br i1 %cmp12, label %if.then14, label %if.end15

if.then14:                                        ; preds = %sw.default
  %18 = load ptr, ptr %nlh.addr, align 8
  call void @tswap_nlmsghdr(ptr noundef %18)
  %19 = load i64, ptr %ret, align 8
  store i64 %19, ptr %retval, align 8
  br label %return

if.end15:                                         ; preds = %sw.default
  br label %sw.epilog

sw.epilog:                                        ; preds = %if.end15, %sw.bb8
  %20 = load ptr, ptr %nlh.addr, align 8
  call void @tswap_nlmsghdr(ptr noundef %20)
  %21 = load i32, ptr %nlmsg_len, align 4
  %add = add i32 %21, 4
  %sub = sub i32 %add, 1
  %and = and i32 %sub, -4
  store i32 %and, ptr %aligned_nlmsg_len, align 4
  %22 = load i32, ptr %aligned_nlmsg_len, align 4
  %conv16 = zext i32 %22 to i64
  %23 = load i64, ptr %len.addr, align 8
  %cmp17 = icmp uge i64 %conv16, %23
  br i1 %cmp17, label %if.then19, label %if.end20

if.then19:                                        ; preds = %sw.epilog
  br label %while.end

if.end20:                                         ; preds = %sw.epilog
  %24 = load i32, ptr %aligned_nlmsg_len, align 4
  %conv21 = zext i32 %24 to i64
  %25 = load i64, ptr %len.addr, align 8
  %sub22 = sub i64 %25, %conv21
  store i64 %sub22, ptr %len.addr, align 8
  %26 = load ptr, ptr %nlh.addr, align 8
  %27 = load i32, ptr %aligned_nlmsg_len, align 4
  %idx.ext = zext i32 %27 to i64
  %add.ptr23 = getelementptr i8, ptr %26, i64 %idx.ext
  store ptr %add.ptr23, ptr %nlh.addr, align 8
  br label %while.cond, !llvm.loop !9

while.end:                                        ; preds = %if.then19, %if.then, %while.cond
  store i64 0, ptr %retval, align 8
  br label %return

return:                                           ; preds = %while.end, %if.then14, %sw.bb9, %sw.bb
  %28 = load i64, ptr %retval, align 8
  ret i64 %28
}

; Function Attrs: nounwind sspstrong uwtable
define internal i64 @host_to_target_nlmsg_audit(ptr noundef %nlh, i64 noundef %len) #0 {
entry:
  %nlh.addr = alloca ptr, align 8
  %len.addr = alloca i64, align 8
  store ptr %nlh, ptr %nlh.addr, align 8
  store i64 %len, ptr %len.addr, align 8
  %0 = load ptr, ptr %nlh.addr, align 8
  %1 = load i64, ptr %len.addr, align 8
  %call = call i64 @host_to_target_for_each_nlmsg(ptr noundef %0, i64 noundef %1, ptr noundef @host_to_target_data_audit)
  ret i64 %call
}

; Function Attrs: nounwind sspstrong uwtable
define internal i64 @netlink_audit_host_to_target(ptr noundef %buf, i64 noundef %len) #0 {
entry:
  %retval = alloca i64, align 8
  %buf.addr = alloca ptr, align 8
  %len.addr = alloca i64, align 8
  %ret = alloca i64, align 8
  store ptr %buf, ptr %buf.addr, align 8
  store i64 %len, ptr %len.addr, align 8
  %0 = load ptr, ptr %buf.addr, align 8
  %1 = load i64, ptr %len.addr, align 8
  %call = call i64 @host_to_target_nlmsg_audit(ptr noundef %0, i64 noundef %1)
  store i64 %call, ptr %ret, align 8
  %2 = load i64, ptr %ret, align 8
  %cmp = icmp slt i64 %2, 0
  br i1 %cmp, label %if.then, label %if.end

if.then:                                          ; preds = %entry
  %3 = load i64, ptr %ret, align 8
  store i64 %3, ptr %retval, align 8
  br label %return

if.end:                                           ; preds = %entry
  %4 = load i64, ptr %len.addr, align 8
  store i64 %4, ptr %retval, align 8
  br label %return

return:                                           ; preds = %if.end, %if.then
  %5 = load i64, ptr %retval, align 8
  ret i64 %5
}