; Function Attrs: nounwind sspstrong uwtable
define internal noundef i64 @netlink_audit_host_to_target(ptr noundef readonly captures(none) %buf, i64 noundef %len) #0 {
entry:
  %cmp19.i.i = icmp ugt i64 %len, 16
  br i1 %cmp19.i.i, label %while.body.i.i, label %host_to_target_nlmsg_audit.exit

while.body.i.i:                                   ; preds = %entry, %sw.epilog.i.i
  %nlh.addr.021.i.i = phi ptr [ %add.ptr23.i.i, %sw.epilog.i.i ], [ %buf, %entry ]
  %len.addr.020.i.i = phi i64 [ %sub22.i.i, %sw.epilog.i.i ], [ %len, %entry ]
  %0 = load i32, ptr %nlh.addr.021.i.i, align 4
  %cmp2.i.i = icmp ult i32 %0, 16
  %conv.i.i = zext i32 %0 to i64
  %cmp5.i.i = icmp ult i64 %len.addr.020.i.i, %conv.i.i
  %or.cond.i.i = or i1 %cmp2.i.i, %cmp5.i.i
  br i1 %or.cond.i.i, label %host_to_target_nlmsg_audit.exit, label %if.end.i.i

if.end.i.i:                                       ; preds = %while.body.i.i
  %nlmsg_type.i.i = getelementptr inbounds nuw i8, ptr %nlh.addr.021.i.i, i64 4
  %1 = load i16, ptr %nlmsg_type.i.i, align 4
  switch i16 %1, label %sw.default.i.i [
    i16 3, label %host_to_target_nlmsg_audit.exit
    i16 1, label %sw.epilog.i.i
    i16 2, label %host_to_target_nlmsg_audit.exit
  ]

sw.default.i.i:                                   ; preds = %if.end.i.i
  %2 = load i32, ptr @qemu_loglevel, align 4
  %and.i.i.i = and i32 %2, 1024
  %cmp.i.not.i.i = icmp eq i32 %and.i.i.i, 0
  br i1 %cmp.i.not.i.i, label %host_to_target_nlmsg_audit.exit, label %if.then.i.i

if.then.i.i:                                      ; preds = %sw.default.i.i
  %conv4.i.i = zext i16 %1 to i32
  tail call void (ptr, ...) @qemu_log(ptr noundef nonnull @.str.23, i32 noundef %conv4.i.i) #5
  br label %host_to_target_nlmsg_audit.exit

sw.epilog.i.i:                                    ; preds = %if.end.i.i
  %sub.i.i = add i32 %0, 3
  %and.i.i = and i32 %sub.i.i, -4
  %conv16.i.i = zext i32 %and.i.i to i64
  %cmp17.not.i.i = icmp ugt i64 %len.addr.020.i.i, %conv16.i.i
  %sub22.i.i = sub nuw i64 %len.addr.020.i.i, %conv16.i.i
  %add.ptr23.i.i = getelementptr i8, ptr %nlh.addr.021.i.i, i64 %conv16.i.i
  %cmp.i.i = icmp ugt i64 %sub22.i.i, 16
  %or.cond28.i.i = select i1 %cmp17.not.i.i, i1 %cmp.i.i, i1 false
  br i1 %or.cond28.i.i, label %while.body.i.i, label %host_to_target_nlmsg_audit.exit, !llvm.loop !8

host_to_target_nlmsg_audit.exit:                  ; preds = %while.body.i.i, %if.end.i.i, %if.end.i.i, %sw.epilog.i.i, %entry, %sw.default.i.i, %if.then.i.i
  %3 = phi i64 [ -22, %sw.default.i.i ], [ -22, %if.then.i.i ], [ %len, %entry ], [ %len, %sw.epilog.i.i ], [ %len, %if.end.i.i ], [ %len, %if.end.i.i ], [ %len, %while.body.i.i ]
  ret i64 %3
}